(lp0
VC:/Users/cdroa/Music/Don't Stop Believin'.wav
p1
aVC:/Users/cdroa/Music/Hard to Say I'm Sorry.wav
p2
aVC:/Users/cdroa/Music/Listen to Your Heart.wav
p3
aVC:/Users/cdroa/Music/01 Oh Sherrie cover.jpg
p4
aVC:/Users/cdroa/Music/Rosanna.wav
p5
aVC:/Users/cdroa/Music/BLOCK BY BLOCK.mp3
p6
aVC:/Users/cdroa/Desktop/projects/python/Grid Music V.2/01 Black Magic.wav
p7
aVC:/Users/cdroa/Desktop/projects/python/Grid Music V.2/07 Viva la Vida.wav
p8
aVC:/Users/cdroa/Desktop/projects/python/Grid Music V.2/01 Hotline Bling.wav
p9
aVC:/Users/cdroa/Desktop/projects/html/rick roll.mp4
p10
aVC:/Users/cdroa/Music/Oh Sherrie.wav
p11
a.