(lp0
VC:/Users/cdroa/Downloads/tumblr_l9klgkYIji1qcullm.jpg
p1
aVC:/Users/cdroa/Music/hard to cover.jpg
p2
aVC:/Users/cdroa/Music/listen cover.jpg
p3
aVC:/Users/cdroa/Music/01 Oh Sherrie cover.jpg
p4
aVC:/Users/cdroa/Music/rosanna cover.jpg
p5
aS'C:\\Users\\cdroa\\Desktop\\projects\\python\\Grid Beat\\Grid Beat\\images/noPic.png'
p6
aVC:/Users/cdroa/Desktop/projects/python/Grid Music V.2/black magic cover.jpg
p7
aVC:/Users/cdroa/Desktop/projects/python/Grid Music V.2/coldplay-viva-la-vida-cover.jpg
p8
aVC:/Users/cdroa/Desktop/projects/python/Grid Music V.2/hotline-bling.jpg
p9
aVC:/Users/cdroa/Downloads/th.jpg
p10
aS'C:\\Users\\cdroa\\Desktop\\projects\\python\\Grid Beat\\Grid Beat\\images/noPic.png'
p11
a.