(lp0
VDon't Stop Believin'
p1
aVHard to Say I'm Sorry
p2
aVListen to Your Heart
p3
aV01 Oh Sherrie cover
p4
aVRosanna
p5
aVBLOCK BY BLOCK
p6
aV Black Magic
p7
aV Viva la Vida
p8
aV Hotline Bling
p9
aVrick roll
p10
aVOh Sherrie
p11
a.